target datalayout = "e-m:e-p270:32:32-p271:32:32-p272:64:64-i64:64-i128:128-f80:128-n8:16:32:64-S128"
target triple = "x86_64-pc-linux-gnu"

%class.b3Matrix3x3 = type { [3 x %class.b3Vector3] }
%class.b3Vector3 = type { %union.anon.0 }
%union.anon.0 = type { [4 x float] }

; Function Attrs: inlinehint mustprogress nounwind uwtable
define linkonce_odr dso_local noundef ptr @_ZNK9b3Vector3cvPKfEv(ptr noundef nonnull align 16 dereferenceable(16) %0) #5 comdat align 2 {
  %2 = alloca ptr, align 8
  store ptr %0, ptr %2, align 8, !tbaa !65
  %3 = load ptr, ptr %2, align 8
  %4 = getelementptr inbounds nuw %class.b3Vector3, ptr %3, i32 0, i32 0
  %5 = getelementptr inbounds [4 x float], ptr %4, i64 0, i64 0
  ret ptr %5
}

; Function Attrs: inlinehint mustprogress nounwind uwtable
define linkonce_odr dso_local noundef nonnull align 16 dereferenceable(16) ptr @_ZNK11b3Matrix3x3ixEi(ptr noundef nonnull align 16 dereferenceable(48) %0, i32 noundef %1) #5 comdat align 2 {
  %3 = alloca ptr, align 8
  %4 = alloca i32, align 4
  store ptr %0, ptr %3, align 8, !tbaa !63
  store i32 %1, ptr %4, align 4, !tbaa !9
  %5 = load ptr, ptr %3, align 8
  %6 = getelementptr inbounds nuw %class.b3Matrix3x3, ptr %5, i32 0, i32 0
  %7 = load i32, ptr %4, align 4, !tbaa !9
  %8 = sext i32 %7 to i64
  %9 = getelementptr inbounds [3 x %class.b3Vector3], ptr %6, i64 0, i64 %8
  ret ptr %9
}

; Function Attrs: inlinehint mustprogress nounwind uwtable
define linkonce_odr dso_local noundef float @_Z6b3Asinf(float noundef %0) #5 comdat {
  %2 = alloca float, align 4
  store float %0, ptr %2, align 4, !tbaa !37
  %3 = load float, ptr %2, align 4, !tbaa !37
  %4 = fcmp olt float %3, -1.000000e+00
  br i1 %4, label %5, label %6

5:                                                ; preds = %1
  store float -1.000000e+00, ptr %2, align 4, !tbaa !37
  br label %6

6:                                                ; preds = %5, %1
  %7 = load float, ptr %2, align 4, !tbaa !37
  %8 = fcmp ogt float %7, 1.000000e+00
  br i1 %8, label %9, label %10

9:                                                ; preds = %6
  store float 1.000000e+00, ptr %2, align 4, !tbaa !37
  br label %10

10:                                               ; preds = %9, %6
  %11 = load float, ptr %2, align 4, !tbaa !37
  %12 = call float @asinf(float noundef %11) #13, !tbaa !9
  ret float %12
}

; Function Attrs: inlinehint mustprogress nounwind uwtable
define linkonce_odr dso_local noundef ptr @_ZN9b3Vector3cvPfEv(ptr noundef nonnull align 16 dereferenceable(16) %0) #5 comdat align 2 {
  %2 = alloca ptr, align 8
  store ptr %0, ptr %2, align 8, !tbaa !65
  %3 = load ptr, ptr %2, align 8
  %4 = getelementptr inbounds nuw %class.b3Vector3, ptr %3, i32 0, i32 0
  %5 = getelementptr inbounds [4 x float], ptr %4, i64 0, i64 0
  ret ptr %5
}

; Function Attrs: inlinehint mustprogress nounwind uwtable
define linkonce_odr dso_local noundef float @_Z7b3Atan2ff(float noundef %0, float noundef %1) #5 comdat {
  %3 = alloca float, align 4
  %4 = alloca float, align 4
  store float %0, ptr %3, align 4, !tbaa !37
  store float %1, ptr %4, align 4, !tbaa !37
  %5 = load float, ptr %3, align 4, !tbaa !37
  %6 = load float, ptr %4, align 4, !tbaa !37
  %7 = call float @atan2f(float noundef %5, float noundef %6) #13, !tbaa !9
  ret float %7
}

; Function Attrs: mustprogress uwtable
define dso_local noundef float @_Z15btGetMatrixElemRK11b3Matrix3x3i(ptr noundef nonnull align 16 dereferenceable(48) %0, i32 noundef %1) #0 {
  %3 = alloca ptr, align 8
  %4 = alloca i32, align 4
  %5 = alloca i32, align 4
  %6 = alloca i32, align 4
  store ptr %0, ptr %3, align 8, !tbaa !63
  store i32 %1, ptr %4, align 4, !tbaa !9
  call void @llvm.lifetime.start.p0(i64 4, ptr %5) #13
  %7 = load i32, ptr %4, align 4, !tbaa !9
  %8 = srem i32 %7, 3
  store i32 %8, ptr %5, align 4, !tbaa !9
  call void @llvm.lifetime.start.p0(i64 4, ptr %6) #13
  %9 = load i32, ptr %4, align 4, !tbaa !9
  %10 = sdiv i32 %9, 3
  store i32 %10, ptr %6, align 4, !tbaa !9
  %11 = load ptr, ptr %3, align 8, !tbaa !63
  %12 = load i32, ptr %5, align 4, !tbaa !9
  %13 = call noundef nonnull align 16 dereferenceable(16) ptr @_ZNK11b3Matrix3x3ixEi(ptr noundef nonnull align 16 dereferenceable(48) %11, i32 noundef %12)
  %14 = call noundef ptr @_ZNK9b3Vector3cvPKfEv(ptr noundef nonnull align 16 dereferenceable(16) %13)
  %15 = load i32, ptr %6, align 4, !tbaa !9
  %16 = sext i32 %15 to i64
  %17 = getelementptr inbounds float, ptr %14, i64 %16
  %18 = load float, ptr %17, align 4, !tbaa !37
  call void @llvm.lifetime.end.p0(i64 4, ptr %6) #13
  call void @llvm.lifetime.end.p0(i64 4, ptr %5) #13
  ret float %18
}

; Function Attrs: mustprogress uwtable
define dso_local noundef zeroext i1 @_Z16matrixToEulerXYZRK11b3Matrix3x3R9b3Vector3(ptr noundef nonnull align 16 dereferenceable(48) %0, ptr noundef nonnull align 16 dereferenceable(16) %1) #0 {
  %3 = alloca i1, align 1
  %4 = alloca ptr, align 8
  %5 = alloca ptr, align 8
  %6 = alloca float, align 4
  %7 = alloca i32, align 4
  store ptr %0, ptr %4, align 8, !tbaa !63
  store ptr %1, ptr %5, align 8, !tbaa !65
  call void @llvm.lifetime.start.p0(i64 4, ptr %6) #13
  %8 = load ptr, ptr %4, align 8, !tbaa !63
  %9 = call noundef float @_Z15btGetMatrixElemRK11b3Matrix3x3i(ptr noundef nonnull align 16 dereferenceable(48) %8, i32 noundef 2)
  store float %9, ptr %6, align 4, !tbaa !37
  %10 = load float, ptr %6, align 4, !tbaa !37
  %11 = fcmp olt float %10, 1.000000e+00
  br i1 %11, label %12, label %56

12:                                               ; preds = %2
  %13 = load float, ptr %6, align 4, !tbaa !37
  %14 = fcmp ogt float %13, -1.000000e+00
  br i1 %14, label %15, label %40

15:                                               ; preds = %12
  %16 = load ptr, ptr %4, align 8, !tbaa !63
  %17 = call noundef float @_Z15btGetMatrixElemRK11b3Matrix3x3i(ptr noundef nonnull align 16 dereferenceable(48) %16, i32 noundef 5)
  %18 = fneg float %17
  %19 = load ptr, ptr %4, align 8, !tbaa !63
  %20 = call noundef float @_Z15btGetMatrixElemRK11b3Matrix3x3i(ptr noundef nonnull align 16 dereferenceable(48) %19, i32 noundef 8)
  %21 = call noundef float @_Z7b3Atan2ff(float noundef %18, float noundef %20)
  %22 = load ptr, ptr %5, align 8, !tbaa !65
  %23 = call noundef ptr @_ZN9b3Vector3cvPfEv(ptr noundef nonnull align 16 dereferenceable(16) %22)
  %24 = getelementptr inbounds float, ptr %23, i64 0
  store float %21, ptr %24, align 4, !tbaa !37
  %25 = load ptr, ptr %4, align 8, !tbaa !63
  %26 = call noundef float @_Z15btGetMatrixElemRK11b3Matrix3x3i(ptr noundef nonnull align 16 dereferenceable(48) %25, i32 noundef 2)
  %27 = call noundef float @_Z6b3Asinf(float noundef %26)
  %28 = load ptr, ptr %5, align 8, !tbaa !65
  %29 = call noundef ptr @_ZN9b3Vector3cvPfEv(ptr noundef nonnull align 16 dereferenceable(16) %28)
  %30 = getelementptr inbounds float, ptr %29, i64 1
  store float %27, ptr %30, align 4, !tbaa !37
  %31 = load ptr, ptr %4, align 8, !tbaa !63
  %32 = call noundef float @_Z15btGetMatrixElemRK11b3Matrix3x3i(ptr noundef nonnull align 16 dereferenceable(48) %31, i32 noundef 1)
  %33 = fneg float %32
  %34 = load ptr, ptr %4, align 8, !tbaa !63
  %35 = call noundef float @_Z15btGetMatrixElemRK11b3Matrix3x3i(ptr noundef nonnull align 16 dereferenceable(48) %34, i32 noundef 0)
  %36 = call noundef float @_Z7b3Atan2ff(float noundef %33, float noundef %35)
  %37 = load ptr, ptr %5, align 8, !tbaa !65
  %38 = call noundef ptr @_ZN9b3Vector3cvPfEv(ptr noundef nonnull align 16 dereferenceable(16) %37)
  %39 = getelementptr inbounds float, ptr %38, i64 2
  store float %36, ptr %39, align 4, !tbaa !37
  store i1 true, ptr %3, align 1
  store i32 1, ptr %7, align 4
  br label %72

40:                                               ; preds = %12
  %41 = load ptr, ptr %4, align 8, !tbaa !63
  %42 = call noundef float @_Z15btGetMatrixElemRK11b3Matrix3x3i(ptr noundef nonnull align 16 dereferenceable(48) %41, i32 noundef 3)
  %43 = load ptr, ptr %4, align 8, !tbaa !63
  %44 = call noundef float @_Z15btGetMatrixElemRK11b3Matrix3x3i(ptr noundef nonnull align 16 dereferenceable(48) %43, i32 noundef 4)
  %45 = call noundef float @_Z7b3Atan2ff(float noundef %42, float noundef %44)
  %46 = fneg float %45
  %47 = load ptr, ptr %5, align 8, !tbaa !65
  %48 = call noundef ptr @_ZN9b3Vector3cvPfEv(ptr noundef nonnull align 16 dereferenceable(16) %47)
  %49 = getelementptr inbounds float, ptr %48, i64 0
  store float %46, ptr %49, align 4, !tbaa !37
  %50 = load ptr, ptr %5, align 8, !tbaa !65
  %51 = call noundef ptr @_ZN9b3Vector3cvPfEv(ptr noundef nonnull align 16 dereferenceable(16) %50)
  %52 = getelementptr inbounds float, ptr %51, i64 1
  store float 0xBFF921FB60000000, ptr %52, align 4, !tbaa !37
  %53 = load ptr, ptr %5, align 8, !tbaa !65
  %54 = call noundef ptr @_ZN9b3Vector3cvPfEv(ptr noundef nonnull align 16 dereferenceable(16) %53)
  %55 = getelementptr inbounds float, ptr %54, i64 2
  store float 0.000000e+00, ptr %55, align 4, !tbaa !37
  store i1 false, ptr %3, align 1
  store i32 1, ptr %7, align 4
  br label %72

56:                                               ; preds = %2
  %57 = load ptr, ptr %4, align 8, !tbaa !63
  %58 = call noundef float @_Z15btGetMatrixElemRK11b3Matrix3x3i(ptr noundef nonnull align 16 dereferenceable(48) %57, i32 noundef 3)
  %59 = load ptr, ptr %4, align 8, !tbaa !63
  %60 = call noundef float @_Z15btGetMatrixElemRK11b3Matrix3x3i(ptr noundef nonnull align 16 dereferenceable(48) %59, i32 noundef 4)
  %61 = call noundef float @_Z7b3Atan2ff(float noundef %58, float noundef %60)
  %62 = load ptr, ptr %5, align 8, !tbaa !65
  %63 = call noundef ptr @_ZN9b3Vector3cvPfEv(ptr noundef nonnull align 16 dereferenceable(16) %62)
  %64 = getelementptr inbounds float, ptr %63, i64 0
  store float %61, ptr %64, align 4, !tbaa !37
  %65 = load ptr, ptr %5, align 8, !tbaa !65
  %66 = call noundef ptr @_ZN9b3Vector3cvPfEv(ptr noundef nonnull align 16 dereferenceable(16) %65)
  %67 = getelementptr inbounds float, ptr %66, i64 1
  store float 0x3FF921FB60000000, ptr %67, align 4, !tbaa !37
  %68 = load ptr, ptr %5, align 8, !tbaa !65
  %69 = call noundef ptr @_ZN9b3Vector3cvPfEv(ptr noundef nonnull align 16 dereferenceable(16) %68)
  %70 = getelementptr inbounds float, ptr %69, i64 2
  store float 0.000000e+00, ptr %70, align 4, !tbaa !37
  br label %71

71:                                               ; preds = %56
  store i1 false, ptr %3, align 1
  store i32 1, ptr %7, align 4
  br label %72

72:                                               ; preds = %71, %40, %15
  call void @llvm.lifetime.end.p0(i64 4, ptr %6) #13
  %73 = load i1, ptr %3, align 1
  ret i1 %73
}